; Function Attrs: mustprogress uwtable
define noundef zeroext i1 @_ZN3zmq12wss_engine_t9handshakeEv(ptr noundef nonnull align 8 dereferenceable(25720) %0) unnamed_addr #0 align 2 {
  %2 = getelementptr inbounds nuw i8, ptr %0, i64 25696
  %3 = load i8, ptr %2, align 8, !tbaa !6, !range !74, !noundef !75
  %4 = trunc nuw i8 %3 to i1
  br i1 %4, label %7, label %5

5:                                                ; preds = %1
  %6 = tail call noundef zeroext i1 @_ZN3zmq12wss_engine_t12do_handshakeEv(ptr noundef nonnull align 8 dereferenceable(25720) %0)
  br label %9

7:                                                ; preds = %1
  %8 = tail call noundef zeroext i1 @_ZN3zmq11ws_engine_t9handshakeEv(ptr noundef nonnull align 8 dereferenceable(25696) %0)
  br label %9

9:                                                ; preds = %7, %5
  %.0 = phi i1 [ %8, %7 ], [ false, %5 ]
  ret i1 %.0
}